; ModuleID = '58/51.c'
source_filename = "58/51.c"
target datalayout = "e-m:e-p270:32:32-p271:32:32-p272:64:64-i64:64-f80:128-n8:16:32:64-S128"
target triple = "x86_64-pc-linux-gnu"

@.str = private unnamed_addr constant [3 x i8] c"%d\00", align 1
@.str.1 = private unnamed_addr constant [3 x i8] c"1\0A\00", align 1
@.str.2 = private unnamed_addr constant [3 x i8] c"0\0A\00", align 1

; Function Attrs: noinline nounwind uwtable
define dso_local void @main() #0 {
  %1 = alloca i32, align 4
  %2 = alloca i32, align 4
  %3 = alloca i32, align 4
  %4 = alloca [10 x i8], align 1
  %5 = alloca i8**, align 8
  %6 = call i32 (i8*, ...) @__isoc99_scanf(i8* getelementptr inbounds ([3 x i8], [3 x i8]* @.str, i64 0, i64 0), i32* %1)
  %7 = getelementptr inbounds [10 x i8], [10 x i8]* %4, i64 0, i64 0
  %8 = call i32 (i8*, ...) bitcast (i32 (...)* @gets to i32 (i8*, ...)*)(i8* %7)
  %9 = load i32, i32* %1, align 4
  %10 = sext i32 %9 to i64
  %11 = mul i64 %10, 1
  %12 = call noalias i8* @malloc(i64 %11) #3
  %13 = bitcast i8* %12 to i8**
  store i8** %13, i8*** %5, align 8
  store i32 0, i32* %2, align 4
  br label %14

14:                                               ; preds = %196, %0
  %15 = load i32, i32* %2, align 4
  %16 = load i32, i32* %1, align 4
  %17 = icmp slt i32 %15, %16
  br i1 %17, label %18, label %199

18:                                               ; preds = %14
  %19 = call noalias i8* @malloc(i64 80) #3
  %20 = load i8**, i8*** %5, align 8
  %21 = load i32, i32* %2, align 4
  %22 = sext i32 %21 to i64
  %23 = getelementptr inbounds i8*, i8** %20, i64 %22
  store i8* %19, i8** %23, align 8
  %24 = load i8**, i8*** %5, align 8
  %25 = load i32, i32* %2, align 4
  %26 = sext i32 %25 to i64
  %27 = getelementptr inbounds i8*, i8** %24, i64 %26
  %28 = load i8*, i8** %27, align 8
  %29 = call i32 (i8*, ...) bitcast (i32 (...)* @gets to i32 (i8*, ...)*)(i8* %28)
  store i32 1, i32* %3, align 4
  %30 = load i8**, i8*** %5, align 8
  %31 = load i32, i32* %2, align 4
  %32 = sext i32 %31 to i64
  %33 = getelementptr inbounds i8*, i8** %30, i64 %32
  %34 = load i8*, i8** %33, align 8
  %35 = load i8, i8* %34, align 1
  %36 = sext i8 %35 to i32
  %37 = icmp eq i32 %36, 95
  br i1 %37, label %74, label %38

38:                                               ; preds = %18
  %39 = load i8**, i8*** %5, align 8
  %40 = load i32, i32* %2, align 4
  %41 = sext i32 %40 to i64
  %42 = getelementptr inbounds i8*, i8** %39, i64 %41
  %43 = load i8*, i8** %42, align 8
  %44 = load i8, i8* %43, align 1
  %45 = sext i8 %44 to i32
  %46 = icmp sge i32 %45, 97
  br i1 %46, label %47, label %56

47:                                               ; preds = %38
  %48 = load i8**, i8*** %5, align 8
  %49 = load i32, i32* %2, align 4
  %50 = sext i32 %49 to i64
  %51 = getelementptr inbounds i8*, i8** %48, i64 %50
  %52 = load i8*, i8** %51, align 8
  %53 = load i8, i8* %52, align 1
  %54 = sext i8 %53 to i32
  %55 = icmp sle i32 %54, 122
  br i1 %55, label %74, label %56

56:                                               ; preds = %47, %38
  %57 = load i8**, i8*** %5, align 8
  %58 = load i32, i32* %2, align 4
  %59 = sext i32 %58 to i64
  %60 = getelementptr inbounds i8*, i8** %57, i64 %59
  %61 = load i8*, i8** %60, align 8
  %62 = load i8, i8* %61, align 1
  %63 = sext i8 %62 to i32
  %64 = icmp sge i32 %63, 65
  br i1 %64, label %65, label %193

65:                                               ; preds = %56
  %66 = load i8**, i8*** %5, align 8
  %67 = load i32, i32* %2, align 4
  %68 = sext i32 %67 to i64
  %69 = getelementptr inbounds i8*, i8** %66, i64 %68
  %70 = load i8*, i8** %69, align 8
  %71 = load i8, i8* %70, align 1
  %72 = sext i8 %71 to i32
  %73 = icmp sle i32 %72, 90
  br i1 %73, label %74, label %193

74:                                               ; preds = %65, %47, %18
  br label %75

75:                                               ; preds = %175, %74
  %76 = load i8**, i8*** %5, align 8
  %77 = load i32, i32* %2, align 4
  %78 = sext i32 %77 to i64
  %79 = getelementptr inbounds i8*, i8** %76, i64 %78
  %80 = load i8*, i8** %79, align 8
  %81 = load i32, i32* %3, align 4
  %82 = sext i32 %81 to i64
  %83 = getelementptr inbounds i8, i8* %80, i64 %82
  %84 = load i8, i8* %83, align 1
  %85 = sext i8 %84 to i32
  %86 = icmp ne i32 %85, 0
  br i1 %86, label %87, label %176

87:                                               ; preds = %75
  %88 = load i8**, i8*** %5, align 8
  %89 = load i32, i32* %2, align 4
  %90 = sext i32 %89 to i64
  %91 = getelementptr inbounds i8*, i8** %88, i64 %90
  %92 = load i8*, i8** %91, align 8
  %93 = load i32, i32* %3, align 4
  %94 = sext i32 %93 to i64
  %95 = getelementptr inbounds i8, i8* %92, i64 %94
  %96 = load i8, i8* %95, align 1
  %97 = sext i8 %96 to i32
  %98 = icmp eq i32 %97, 95
  br i1 %98, label %171, label %99

99:                                               ; preds = %87
  %100 = load i8**, i8*** %5, align 8
  %101 = load i32, i32* %2, align 4
  %102 = sext i32 %101 to i64
  %103 = getelementptr inbounds i8*, i8** %100, i64 %102
  %104 = load i8*, i8** %103, align 8
  %105 = load i32, i32* %3, align 4
  %106 = sext i32 %105 to i64
  %107 = getelementptr inbounds i8, i8* %104, i64 %106
  %108 = load i8, i8* %107, align 1
  %109 = sext i8 %108 to i32
  %110 = icmp sge i32 %109, 48
  br i1 %110, label %111, label %123

111:                                              ; preds = %99
  %112 = load i8**, i8*** %5, align 8
  %113 = load i32, i32* %2, align 4
  %114 = sext i32 %113 to i64
  %115 = getelementptr inbounds i8*, i8** %112, i64 %114
  %116 = load i8*, i8** %115, align 8
  %117 = load i32, i32* %3, align 4
  %118 = sext i32 %117 to i64
  %119 = getelementptr inbounds i8, i8* %116, i64 %118
  %120 = load i8, i8* %119, align 1
  %121 = sext i8 %120 to i32
  %122 = icmp sle i32 %121, 57
  br i1 %122, label %171, label %123

123:                                              ; preds = %111, %99
  %124 = load i8**, i8*** %5, align 8
  %125 = load i32, i32* %2, align 4
  %126 = sext i32 %125 to i64
  %127 = getelementptr inbounds i8*, i8** %124, i64 %126
  %128 = load i8*, i8** %127, align 8
  %129 = load i32, i32* %3, align 4
  %130 = sext i32 %129 to i64
  %131 = getelementptr inbounds i8, i8* %128, i64 %130
  %132 = load i8, i8* %131, align 1
  %133 = sext i8 %132 to i32
  %134 = icmp sge i32 %133, 97
  br i1 %134, label %135, label %147

135:                                              ; preds = %123
  %136 = load i8**, i8*** %5, align 8
  %137 = load i32, i32* %2, align 4
  %138 = sext i32 %137 to i64
  %139 = getelementptr inbounds i8*, i8** %136, i64 %138
  %140 = load i8*, i8** %139, align 8
  %141 = load i32, i32* %3, align 4
  %142 = sext i32 %141 to i64
  %143 = getelementptr inbounds i8, i8* %140, i64 %142
  %144 = load i8, i8* %143, align 1
  %145 = sext i8 %144 to i32
  %146 = icmp sle i32 %145, 122
  br i1 %146, label %171, label %147

147:                                              ; preds = %135, %123
  %148 = load i8**, i8*** %5, align 8
  %149 = load i32, i32* %2, align 4
  %150 = sext i32 %149 to i64
  %151 = getelementptr inbounds i8*, i8** %148, i64 %150
  %152 = load i8*, i8** %151, align 8
  %153 = load i32, i32* %3, align 4
  %154 = sext i32 %153 to i64
  %155 = getelementptr inbounds i8, i8* %152, i64 %154
  %156 = load i8, i8* %155, align 1
  %157 = sext i8 %156 to i32
  %158 = icmp sge i32 %157, 65
  br i1 %158, label %159, label %174

159:                                              ; preds = %147
  %160 = load i8**, i8*** %5, align 8
  %161 = load i32, i32* %2, align 4
  %162 = sext i32 %161 to i64
  %163 = getelementptr inbounds i8*, i8** %160, i64 %162
  %164 = load i8*, i8** %163, align 8
  %165 = load i32, i32* %3, align 4
  %166 = sext i32 %165 to i64
  %167 = getelementptr inbounds i8, i8* %164, i64 %166
  %168 = load i8, i8* %167, align 1
  %169 = sext i8 %168 to i32
  %170 = icmp sle i32 %169, 90
  br i1 %170, label %171, label %174

171:                                              ; preds = %159, %135, %111, %87
  %172 = load i32, i32* %3, align 4
  %173 = add nsw i32 %172, 1
  store i32 %173, i32* %3, align 4
  br label %175

174:                                              ; preds = %159, %147
  br label %176

175:                                              ; preds = %171
  br label %75

176:                                              ; preds = %174, %75
  %177 = load i8**, i8*** %5, align 8
  %178 = load i32, i32* %2, align 4
  %179 = sext i32 %178 to i64
  %180 = getelementptr inbounds i8*, i8** %177, i64 %179
  %181 = load i8*, i8** %180, align 8
  %182 = load i32, i32* %3, align 4
  %183 = sext i32 %182 to i64
  %184 = getelementptr inbounds i8, i8* %181, i64 %183
  %185 = load i8, i8* %184, align 1
  %186 = sext i8 %185 to i32
  %187 = icmp eq i32 %186, 0
  br i1 %187, label %188, label %190

188:                                              ; preds = %176
  %189 = call i32 (i8*, ...) @printf(i8* getelementptr inbounds ([3 x i8], [3 x i8]* @.str.1, i64 0, i64 0))
  br label %192

190:                                              ; preds = %176
  %191 = call i32 (i8*, ...) @printf(i8* getelementptr inbounds ([3 x i8], [3 x i8]* @.str.2, i64 0, i64 0))
  br label %192

192:                                              ; preds = %190, %188
  br label %195

193:                                              ; preds = %65, %56
  %194 = call i32 (i8*, ...) @printf(i8* getelementptr inbounds ([3 x i8], [3 x i8]* @.str.2, i64 0, i64 0))
  br label %195

195:                                              ; preds = %193, %192
  br label %196

196:                                              ; preds = %195
  %197 = load i32, i32* %2, align 4
  %198 = add nsw i32 %197, 1
  store i32 %198, i32* %2, align 4
  br label %14

199:                                              ; preds = %14
  ret void
}

declare dso_local i32 @__isoc99_scanf(i8*, ...) #1

declare dso_local i32 @gets(...) #1

; Function Attrs: nounwind
declare dso_local noalias i8* @malloc(i64) #2

declare dso_local i32 @printf(i8*, ...) #1


!llvm.module.flags = !{!0}
!llvm.ident = !{!1}

!0 = !{i32 1, !"wchar_size", i32 4}
!1 = !{!"clang version 10.0.0-4ubuntu1 "}
